target datalayout = "e-m:e-p270:32:32-p271:32:32-p272:64:64-i64:64-i128:128-f80:128-n8:16:32:64-S128"
target triple = "x86_64-pc-linux-gnu"

%class.LogTagSet = type { ptr, i64, [5 x i32], [4 x i8], %class.LogOutputList, %class.LogDecorators, ptr }
%class.LogOutputList = type <{ [6 x ptr], i32, [4 x i8] }>
%class.LogDecorators = type { i32 }
%class.G1IHOPControl = type { ptr, double, i64, double, ptr }
%class.G1OldGenAllocationTracker = type { i64, i64, i64, i64, i64 }

@_ZN16LogTagSetMappingILN6LogTag4typeE49ELS1_55ELS1_0ELS1_0ELS1_0ELS1_0EE7_tagsetE = linkonce_odr hidden global %class.LogTagSet zeroinitializer, comdat, align 8
@_ZN8Universe14_collectedHeapE = external global ptr, align 8

; Function Attrs: mustprogress nounwind uwtable
define linkonce_odr hidden noundef ptr @_ZN8Universe4heapEv() #1 comdat align 2 {
  %1 = load ptr, ptr @_ZN8Universe14_collectedHeapE, align 8
  ret ptr %1
}

; Function Attrs: mustprogress nounwind uwtable
define linkonce_odr hidden noundef zeroext i1 @_ZNK13LogOutputList8is_levelEN8LogLevel4typeE(ptr noundef nonnull align 8 dereferenceable(52) %0, i32 noundef %1) #1 comdat align 2 {
  %3 = alloca ptr, align 8
  %4 = alloca i32, align 4
  store ptr %0, ptr %3, align 8
  store i32 %1, ptr %4, align 4
  %5 = load ptr, ptr %3, align 8
  %6 = getelementptr inbounds %class.LogOutputList, ptr %5, i32 0, i32 0
  %7 = load i32, ptr %4, align 4
  %8 = zext i32 %7 to i64
  %9 = getelementptr inbounds [6 x ptr], ptr %6, i64 0, i64 %8
  %10 = load volatile ptr, ptr %9, align 8
  %11 = icmp ne ptr %10, null
  ret i1 %11
}

; Function Attrs: mustprogress nounwind uwtable
define linkonce_odr hidden noundef ptr @_ZN13CollectedHeap10named_heapI15G1CollectedHeapEEPT_NS_4NameE(i32 noundef %0) #1 comdat align 2 {
  %2 = alloca i32, align 4
  %3 = alloca ptr, align 8
  store i32 %0, ptr %2, align 4
  %4 = call noundef ptr @_ZN8Universe4heapEv()
  store ptr %4, ptr %3, align 8
  %5 = load ptr, ptr %3, align 8
  ret ptr %5
}

; Function Attrs: mustprogress nounwind uwtable
define linkonce_odr hidden noundef zeroext i1 @_ZNK9LogTagSet8is_levelEN8LogLevel4typeE(ptr noundef nonnull align 8 dereferenceable(112) %0, i32 noundef %1) #1 comdat align 2 {
  %3 = alloca ptr, align 8
  %4 = alloca i32, align 4
  store ptr %0, ptr %3, align 8
  store i32 %1, ptr %4, align 4
  %5 = load ptr, ptr %3, align 8
  %6 = getelementptr inbounds %class.LogTagSet, ptr %5, i32 0, i32 4
  %7 = load i32, ptr %4, align 4
  %8 = call noundef zeroext i1 @_ZNK13LogOutputList8is_levelEN8LogLevel4typeE(ptr noundef nonnull align 8 dereferenceable(52) %6, i32 noundef %7)
  ret i1 %8
}

; Function Attrs: mustprogress nounwind uwtable
define linkonce_odr hidden noundef nonnull align 8 dereferenceable(112) ptr @_ZN16LogTagSetMappingILN6LogTag4typeE49ELS1_55ELS1_0ELS1_0ELS1_0ELS1_0EE6tagsetEv() #1 comdat align 2 {
  ret ptr @_ZN16LogTagSetMappingILN6LogTag4typeE49ELS1_55ELS1_0ELS1_0ELS1_0ELS1_0EE7_tagsetE
}

; Function Attrs: mustprogress nounwind uwtable
define linkonce_odr hidden noundef i64 @_ZNK25G1OldGenAllocationTracker25last_period_old_gen_bytesEv(ptr noundef nonnull align 8 dereferenceable(40) %0) #1 comdat align 2 {
  %2 = alloca ptr, align 8
  store ptr %0, ptr %2, align 8
  %3 = load ptr, ptr %2, align 8
  %4 = getelementptr inbounds %class.G1OldGenAllocationTracker, ptr %3, i32 0, i32 0
  %5 = load i64, ptr %4, align 8
  ret i64 %5
}

; Function Attrs: mustprogress nounwind uwtable
define linkonce_odr hidden noundef ptr @_ZN15G1CollectedHeap4heapEv() #1 comdat align 2 {
  %1 = call noundef ptr @_ZN13CollectedHeap10named_heapI15G1CollectedHeapEEPT_NS_4NameE(i32 noundef 3)
  ret ptr %1
}

; Function Attrs: mustprogress nounwind uwtable
define linkonce_odr hidden noundef double @_Z10percent_ofImEdT_S0_(i64 noundef %0, i64 noundef %1) #1 comdat {
  %3 = alloca i64, align 8
  %4 = alloca i64, align 8
  store i64 %0, ptr %3, align 8
  store i64 %1, ptr %4, align 8
  %5 = load i64, ptr %4, align 8
  %6 = icmp ne i64 %5, 0
  br i1 %6, label %7, label %14

7:                                                ; preds = %2
  %8 = load i64, ptr %3, align 8
  %9 = uitofp i64 %8 to double
  %10 = load i64, ptr %4, align 8
  %11 = uitofp i64 %10 to double
  %12 = fdiv double %9, %11
  %13 = fmul double %12, 1.000000e+02
  br label %15

14:                                               ; preds = %2
  br label %15

15:                                               ; preds = %14, %7
  %16 = phi double [ %13, %7 ], [ 0.000000e+00, %14 ]
  ret double %16
}

; Function Attrs: mustprogress nounwind uwtable
define linkonce_odr hidden noundef zeroext i1 @_ZN7LogImplILN6LogTag4typeE49ELS1_55ELS1_0ELS1_0ELS1_0ELS1_0EE8is_levelEN8LogLevel4typeE(i32 noundef %0) #1 comdat align 2 {
  %2 = alloca i32, align 4
  store i32 %0, ptr %2, align 4
  %3 = call noundef nonnull align 8 dereferenceable(112) ptr @_ZN16LogTagSetMappingILN6LogTag4typeE49ELS1_55ELS1_0ELS1_0ELS1_0ELS1_0EE6tagsetEv()
  %4 = load i32, ptr %2, align 4
  %5 = call noundef zeroext i1 @_ZNK9LogTagSet8is_levelEN8LogLevel4typeE(ptr noundef nonnull align 8 dereferenceable(112) %3, i32 noundef %4)
  ret i1 %5
}

; Function Attrs: mustprogress nounwind uwtable
define hidden void @_ZN13G1IHOPControl5printEv(ptr noundef nonnull align 8 dereferenceable(40) %0) unnamed_addr #1 align 2 {
  %2 = alloca ptr, align 8
  %3 = alloca i64, align 8
  store ptr %0, ptr %2, align 8
  %4 = load ptr, ptr %2, align 8
  %5 = load ptr, ptr %4, align 8
  %6 = getelementptr inbounds ptr, ptr %5, i64 3
  %7 = load ptr, ptr %6, align 8
  %8 = call noundef i64 %7(ptr noundef nonnull align 8 dereferenceable(40) %4)
  store i64 %8, ptr %3, align 8
  %9 = call noundef zeroext i1 @_ZN7LogImplILN6LogTag4typeE49ELS1_55ELS1_0ELS1_0ELS1_0ELS1_0EE8is_levelEN8LogLevel4typeE(i32 noundef 2)
  br i1 %9, label %11, label %10

10:                                               ; preds = %1
  br label %49

11:                                               ; preds = %1
  %12 = load i64, ptr %3, align 8
  %13 = load i64, ptr %3, align 8
  %14 = getelementptr inbounds %class.G1IHOPControl, ptr %4, i32 0, i32 2
  %15 = load i64, ptr %14, align 8
  %16 = call noundef double @_Z10percent_ofImEdT_S0_(i64 noundef %13, i64 noundef %15)
  %17 = getelementptr inbounds %class.G1IHOPControl, ptr %4, i32 0, i32 2
  %18 = load i64, ptr %17, align 8
  %19 = call noundef ptr @_ZN15G1CollectedHeap4heapEv()
  %20 = load ptr, ptr %19, align 8
  %21 = getelementptr inbounds ptr, ptr %20, i64 12
  %22 = load ptr, ptr %21, align 8
  %23 = call noundef i64 %22(ptr noundef nonnull align 8 dereferenceable(1488) %19)
  %24 = getelementptr inbounds %class.G1IHOPControl, ptr %4, i32 0, i32 4
  %25 = load ptr, ptr %24, align 8
  %26 = call noundef i64 @_ZNK25G1OldGenAllocationTracker25last_period_old_gen_bytesEv(ptr noundef nonnull align 8 dereferenceable(40) %25)
  %27 = getelementptr inbounds %class.G1IHOPControl, ptr %4, i32 0, i32 3
  %28 = load double, ptr %27, align 8
  %29 = fmul double %28, 1.000000e+03
  %30 = getelementptr inbounds %class.G1IHOPControl, ptr %4, i32 0, i32 3
  %31 = load double, ptr %30, align 8
  %32 = fcmp ogt double %31, 0.000000e+00
  br i1 %32, label %33, label %41

33:                                               ; preds = %11
  %34 = getelementptr inbounds %class.G1IHOPControl, ptr %4, i32 0, i32 4
  %35 = load ptr, ptr %34, align 8
  %36 = call noundef i64 @_ZNK25G1OldGenAllocationTracker25last_period_old_gen_bytesEv(ptr noundef nonnull align 8 dereferenceable(40) %35)
  %37 = uitofp i64 %36 to double
  %38 = getelementptr inbounds %class.G1IHOPControl, ptr %4, i32 0, i32 3
  %39 = load double, ptr %38, align 8
  %40 = fdiv double %37, %39
  br label %42

41:                                               ; preds = %11
  br label %42

42:                                               ; preds = %41, %33
  %43 = phi double [ %40, %33 ], [ 0.000000e+00, %41 ]
  %44 = load ptr, ptr %4, align 8
  %45 = getelementptr inbounds ptr, ptr %44, i64 0
  %46 = load ptr, ptr %45, align 8
  %47 = call noundef double %46(ptr noundef nonnull align 8 dereferenceable(40) %4)
  %48 = fmul double %47, 1.000000e+03
  call void (ptr, ...) @_ZN7LogImplILN6LogTag4typeE49ELS1_55ELS1_0ELS1_0ELS1_0ELS1_0EE5writeILN8LogLevel4typeE2EEEvPKcz(ptr noundef @.str.4, i64 noundef %12, double noundef %16, i64 noundef %18, i64 noundef %23, i64 noundef %26, double noundef %29, double noundef %43, double noundef %48)
  br label %49

49:                                               ; preds = %42, %10
  ret void
}