; Function Attrs: mustprogress nounwind uwtable
define hidden void @_ZN13G1IHOPControl5printEv(ptr noundef nonnull align 8 dereferenceable(40) %0) unnamed_addr #1 align 2 {
  %2 = load ptr, ptr %0, align 8
  %3 = getelementptr inbounds i8, ptr %2, i64 24
  %4 = load ptr, ptr %3, align 8
  %5 = tail call noundef i64 %4(ptr noundef nonnull align 8 dereferenceable(40) %0) #14
  %6 = load volatile ptr, ptr getelementptr inbounds (i8, ptr @_ZN16LogTagSetMappingILN6LogTag4typeE49ELS1_55ELS1_0ELS1_0ELS1_0ELS1_0EE7_tagsetE, i64 56), align 8
  %.not = icmp eq ptr %6, null
  br i1 %.not, label %34, label %7

7:                                                ; preds = %1
  %8 = getelementptr inbounds i8, ptr %0, i64 16
  %9 = load i64, ptr %8, align 8
  %.not.i = icmp eq i64 %9, 0
  %10 = uitofp i64 %5 to double
  %11 = uitofp i64 %9 to double
  %12 = fdiv double %10, %11
  %13 = fmul double %12, 1.000000e+02
  %14 = select i1 %.not.i, double 0.000000e+00, double %13
  %15 = load ptr, ptr @_ZN8Universe14_collectedHeapE, align 8
  %16 = load ptr, ptr %15, align 8
  %17 = getelementptr inbounds i8, ptr %16, i64 96
  %18 = load ptr, ptr %17, align 8
  %19 = tail call noundef i64 %18(ptr noundef nonnull align 8 dereferenceable(1488) %15) #14
  %20 = getelementptr inbounds i8, ptr %0, i64 32
  %21 = load ptr, ptr %20, align 8
  %22 = load i64, ptr %21, align 8
  %23 = getelementptr inbounds i8, ptr %0, i64 24
  %24 = load double, ptr %23, align 8
  %25 = fmul double %24, 1.000000e+03
  %26 = fcmp ogt double %24, 0.000000e+00
  %27 = uitofp i64 %22 to double
  %28 = fdiv double %27, %24
  %29 = select i1 %26, double %28, double 0.000000e+00
  %30 = load ptr, ptr %0, align 8
  %31 = load ptr, ptr %30, align 8
  %32 = tail call noundef double %31(ptr noundef nonnull align 8 dereferenceable(40) %0) #14
  %33 = fmul double %32, 1.000000e+03
  tail call void (ptr, ...) @_ZN7LogImplILN6LogTag4typeE49ELS1_55ELS1_0ELS1_0ELS1_0ELS1_0EE5writeILN8LogLevel4typeE2EEEvPKcz(ptr noundef nonnull @.str.4, i64 noundef %5, double noundef %14, i64 noundef %9, i64 noundef %19, i64 noundef %22, double noundef %25, double noundef %29, double noundef %33)
  br label %34

34:                                               ; preds = %1, %7
  ret void
}